; Function Attrs: mustprogress uwtable
define hidden void @_ZN13contains_varsC2Ev(ptr nocapture noundef nonnull writeonly align 8 dereferenceable(8) %this) unnamed_addr #3 align 2 personality ptr @__gxx_personality_v0 {
entry:
  %call = tail call noalias noundef ptr @_ZN6memory8allocateEm(i64 noundef 40)
  tail call void @llvm.memset.p0.i64(ptr noundef nonnull align 8 dereferenceable(40) %call, i8 0, i64 40, i1 false)
  %call.i.i.i.i.i = tail call noalias noundef ptr @_ZN6memory8allocateEm(i64 noundef 192)
  tail call void @llvm.memset.p0.i64(ptr noundef nonnull align 8 dereferenceable(192) %call.i.i.i.i.i, i8 0, i64 192, i1 false)
  store ptr %call.i.i.i.i.i, ptr %call, align 8
  %m_capacity.i.i.i = getelementptr inbounds i8, ptr %call, i64 8
  store i32 8, ptr %m_capacity.i.i.i, align 8
  %m_size.i.i.i = getelementptr inbounds i8, ptr %call, i64 12
  store i32 0, ptr %m_size.i.i.i, align 4
  %m_num_deleted.i.i.i = getelementptr inbounds i8, ptr %call, i64 16
  store i32 0, ptr %m_num_deleted.i.i.i, align 8
  %m_todo.i = getelementptr inbounds i8, ptr %call, i64 24
  store ptr null, ptr %m_todo.i, align 8
  store ptr %call, ptr %this, align 8
  ret void
}